target datalayout = "e-m:e-p270:32:32-p271:32:32-p272:64:64-i64:64-i128:128-f80:128-n8:16:32:64-S128"
target triple = "x86_64-pc-linux-gnu"

%"class.std::__cxx11::basic_string" = type { %"struct.std::__cxx11::basic_string<char>::_Alloc_hider", i64, %union.anon.15 }
%"struct.std::__cxx11::basic_string<char>::_Alloc_hider" = type { ptr }
%union.anon.15 = type { i64, [8 x i8] }
%"class.OpenImageIO::v3_1_0::JpgOutput" = type { %"class.OpenImageIO::v3_1_0::ImageOutput", %"class.std::__cxx11::basic_string", i32, i32, %"class.std::vector.16", %struct.jpeg_compress_struct, %struct.jpeg_error_mgr, ptr, ptr, %"class.std::vector.16", ptr, i64 }
%"class.OpenImageIO::v3_1_0::ImageOutput" = type { ptr, %"class.OpenImageIO::v3_1_0::ImageSpec", %"class.std::unique_ptr" }
%"class.OpenImageIO::v3_1_0::ImageSpec" = type { i32, i32, i32, i32, i32, i32, i32, i32, i32, i32, i32, i32, i32, i32, i32, i32, %"struct.OpenImageIO::v3_1_0::TypeDesc", %"class.std::vector", %"class.std::vector.0", i32, i32, i8, %"class.OpenImageIO::v3_1_0::ParamValueList" }
%"struct.OpenImageIO::v3_1_0::TypeDesc" = type { i8, i8, i8, i8, i32 }
%"class.std::vector" = type { %"struct.std::_Vector_base" }
%"struct.std::_Vector_base" = type { %"struct.std::_Vector_base<OpenImageIO::v3_1_0::TypeDesc, std::allocator<OpenImageIO::v3_1_0::TypeDesc>>::_Vector_impl" }
%"struct.std::_Vector_base<OpenImageIO::v3_1_0::TypeDesc, std::allocator<OpenImageIO::v3_1_0::TypeDesc>>::_Vector_impl" = type { %"struct.std::_Vector_base<OpenImageIO::v3_1_0::TypeDesc, std::allocator<OpenImageIO::v3_1_0::TypeDesc>>::_Vector_impl_data" }
%"struct.std::_Vector_base<OpenImageIO::v3_1_0::TypeDesc, std::allocator<OpenImageIO::v3_1_0::TypeDesc>>::_Vector_impl_data" = type { ptr, ptr, ptr }
%"class.std::vector.0" = type { %"struct.std::_Vector_base.1" }
%"struct.std::_Vector_base.1" = type { %"struct.std::_Vector_base<std::__cxx11::basic_string<char>, std::allocator<std::__cxx11::basic_string<char>>>::_Vector_impl" }
%"struct.std::_Vector_base<std::__cxx11::basic_string<char>, std::allocator<std::__cxx11::basic_string<char>>>::_Vector_impl" = type { %"struct.std::_Vector_base<std::__cxx11::basic_string<char>, std::allocator<std::__cxx11::basic_string<char>>>::_Vector_impl_data" }
%"struct.std::_Vector_base<std::__cxx11::basic_string<char>, std::allocator<std::__cxx11::basic_string<char>>>::_Vector_impl_data" = type { ptr, ptr, ptr }
%"class.OpenImageIO::v3_1_0::ParamValueList" = type { %"class.std::vector.5" }
%"class.std::vector.5" = type { %"struct.std::_Vector_base.6" }
%"struct.std::_Vector_base.6" = type { %"struct.std::_Vector_base<OpenImageIO::v3_1_0::ParamValue, std::allocator<OpenImageIO::v3_1_0::ParamValue>>::_Vector_impl" }
%"struct.std::_Vector_base<OpenImageIO::v3_1_0::ParamValue, std::allocator<OpenImageIO::v3_1_0::ParamValue>>::_Vector_impl" = type { %"struct.std::_Vector_base<OpenImageIO::v3_1_0::ParamValue, std::allocator<OpenImageIO::v3_1_0::ParamValue>>::_Vector_impl_data" }
%"struct.std::_Vector_base<OpenImageIO::v3_1_0::ParamValue, std::allocator<OpenImageIO::v3_1_0::ParamValue>>::_Vector_impl_data" = type { ptr, ptr, ptr }
%"class.std::unique_ptr" = type { %"struct.std::__uniq_ptr_data" }
%"struct.std::__uniq_ptr_data" = type { %"class.std::__uniq_ptr_impl" }
%"class.std::__uniq_ptr_impl" = type { %"class.std::tuple" }
%"class.std::tuple" = type { %"struct.std::_Tuple_impl" }
%"struct.std::_Tuple_impl" = type { %"struct.std::_Tuple_impl.10", %"struct.std::_Head_base.11" }
%"struct.std::_Tuple_impl.10" = type { %"struct.std::_Head_base" }
%"struct.std::_Head_base" = type { ptr }
%"struct.std::_Head_base.11" = type { ptr }
%struct.jpeg_compress_struct = type { ptr, ptr, ptr, ptr, i32, i32, ptr, i32, i32, i32, i32, double, i32, i32, i32, i32, i32, i32, i32, ptr, [4 x ptr], [4 x i32], [4 x ptr], [4 x ptr], [16 x i8], [16 x i8], [16 x i8], i32, ptr, i32, i32, i32, i32, i32, i32, i32, i32, i32, i32, i8, i8, i8, i16, i16, i32, i32, i32, i32, i32, i32, i32, i32, i32, [4 x ptr], i32, i32, i32, [10 x i32], i32, i32, i32, i32, i32, ptr, i32, ptr, ptr, ptr, ptr, ptr, ptr, ptr, ptr, ptr, ptr, i32 }
%struct.jpeg_error_mgr = type { ptr, ptr, ptr, ptr, ptr, i32, %union.anon.21, i32, i64, ptr, i32, ptr, i32, i32 }
%union.anon.21 = type { [8 x i32], [48 x i8] }
%"class.std::vector.16" = type { %"struct.std::_Vector_base.17" }
%"struct.std::_Vector_base.17" = type { %"struct.std::_Vector_base<unsigned char, std::allocator<unsigned char>>::_Vector_impl" }
%"struct.std::_Vector_base<unsigned char, std::allocator<unsigned char>>::_Vector_impl" = type { %"struct.std::_Vector_base<unsigned char, std::allocator<unsigned char>>::_Vector_impl_data" }
%"struct.std::_Vector_base<unsigned char, std::allocator<unsigned char>>::_Vector_impl_data" = type { ptr, ptr, ptr }

@.str.48 = private unnamed_addr constant [46 x i8] c"Attempt to write scanlines out of order to {}\00", align 1
@.str.49 = private unnamed_addr constant [42 x i8] c"Attempt to write too many scanlines to {}\00", align 1

; Function Attrs: mustprogress nounwind uwtable
define linkonce_odr noundef i64 @_ZNK11OpenImageIO6v3_1_08TypeDesc11elementsizeEv(ptr noundef nonnull align 4 dereferenceable(8) %0) #8 comdat align 2 {
  %2 = alloca ptr, align 8
  store ptr %0, ptr %2, align 8, !tbaa !186
  %3 = load ptr, ptr %2, align 8
  %4 = getelementptr inbounds nuw %"struct.OpenImageIO::v3_1_0::TypeDesc", ptr %3, i32 0, i32 1
  %5 = load i8, ptr %4, align 1, !tbaa !194
  %6 = zext i8 %5 to i64
  %7 = call noundef i64 @_ZNK11OpenImageIO6v3_1_08TypeDesc8basesizeEv(ptr noundef nonnull align 4 dereferenceable(8) %3) #3
  %8 = mul i64 %6, %7
  ret i64 %8
}

; Function Attrs: mustprogress nounwind uwtable
define linkonce_odr noundef i64 @_ZNK11OpenImageIO6v3_1_08TypeDesc4sizeEv(ptr noundef nonnull align 4 dereferenceable(8) %0) #8 comdat align 2 {
  %2 = alloca ptr, align 8
  %3 = alloca i64, align 8
  store ptr %0, ptr %2, align 8, !tbaa !186
  %4 = load ptr, ptr %2, align 8
  call void @llvm.lifetime.start.p0(i64 8, ptr %3) #3
  %5 = getelementptr inbounds nuw %"struct.OpenImageIO::v3_1_0::TypeDesc", ptr %4, i32 0, i32 4
  %6 = load i32, ptr %5, align 4, !tbaa !197
  %7 = icmp sgt i32 %6, 0
  br i1 %7, label %8, label %11

8:                                                ; preds = %1
  %9 = getelementptr inbounds nuw %"struct.OpenImageIO::v3_1_0::TypeDesc", ptr %4, i32 0, i32 4
  %10 = load i32, ptr %9, align 4, !tbaa !197
  br label %12

11:                                               ; preds = %1
  br label %12

12:                                               ; preds = %11, %8
  %13 = phi i32 [ %10, %8 ], [ 1, %11 ]
  %14 = sext i32 %13 to i64
  store i64 %14, ptr %3, align 8, !tbaa !116
  %15 = load i64, ptr %3, align 8, !tbaa !116
  %16 = call noundef i64 @_ZNK11OpenImageIO6v3_1_08TypeDesc11elementsizeEv(ptr noundef nonnull align 4 dereferenceable(8) %4) #3
  %17 = mul i64 %15, %16
  call void @llvm.lifetime.end.p0(i64 8, ptr %3) #3
  ret i64 %17
}

; Function Attrs: mustprogress nounwind uwtable
define linkonce_odr void @_ZN11OpenImageIO6v3_1_08TypeDescC2ENS1_8BASETYPEENS1_9AGGREGATEENS1_12VECSEMANTICSEi(ptr noundef nonnull align 4 dereferenceable(8) %0, i32 noundef %1, i32 noundef %2, i32 noundef %3, i32 noundef %4) unnamed_addr #8 comdat align 2 {
  %6 = alloca ptr, align 8
  %7 = alloca i32, align 4
  %8 = alloca i32, align 4
  %9 = alloca i32, align 4
  %10 = alloca i32, align 4
  store ptr %0, ptr %6, align 8, !tbaa !186
  store i32 %1, ptr %7, align 4, !tbaa !187
  store i32 %2, ptr %8, align 4, !tbaa !189
  store i32 %3, ptr %9, align 4, !tbaa !191
  store i32 %4, ptr %10, align 4, !tbaa !111
  %11 = load ptr, ptr %6, align 8
  %12 = getelementptr inbounds nuw %"struct.OpenImageIO::v3_1_0::TypeDesc", ptr %11, i32 0, i32 0
  %13 = load i32, ptr %7, align 4, !tbaa !187
  %14 = trunc i32 %13 to i8
  store i8 %14, ptr %12, align 4, !tbaa !193
  %15 = getelementptr inbounds nuw %"struct.OpenImageIO::v3_1_0::TypeDesc", ptr %11, i32 0, i32 1
  %16 = load i32, ptr %8, align 4, !tbaa !189
  %17 = trunc i32 %16 to i8
  store i8 %17, ptr %15, align 1, !tbaa !194
  %18 = getelementptr inbounds nuw %"struct.OpenImageIO::v3_1_0::TypeDesc", ptr %11, i32 0, i32 2
  %19 = load i32, ptr %9, align 4, !tbaa !191
  %20 = trunc i32 %19 to i8
  store i8 %20, ptr %18, align 2, !tbaa !195
  %21 = getelementptr inbounds nuw %"struct.OpenImageIO::v3_1_0::TypeDesc", ptr %11, i32 0, i32 3
  store i8 0, ptr %21, align 1, !tbaa !196
  %22 = getelementptr inbounds nuw %"struct.OpenImageIO::v3_1_0::TypeDesc", ptr %11, i32 0, i32 4
  %23 = load i32, ptr %10, align 4, !tbaa !111
  store i32 %23, ptr %22, align 4, !tbaa !197
  ret void
}

; Function Attrs: mustprogress nounwind uwtable
define linkonce_odr void @_ZN11OpenImageIO6v3_1_09ImageSpec11auto_strideERlNS0_8TypeDescEi(ptr noundef nonnull align 8 dereferenceable(8) %0, i64 %1, i32 noundef %2) #8 comdat align 2 {
  %4 = alloca %"struct.OpenImageIO::v3_1_0::TypeDesc", align 4
  %5 = alloca ptr, align 8
  %6 = alloca i32, align 4
  store i64 %1, ptr %4, align 4
  store ptr %0, ptr %5, align 8, !tbaa !210
  store i32 %2, ptr %6, align 4, !tbaa !111
  %7 = load ptr, ptr %5, align 8, !tbaa !210
  %8 = load i64, ptr %7, align 8, !tbaa !116
  %9 = icmp eq i64 %8, -9223372036854775808
  br i1 %9, label %10, label %16

10:                                               ; preds = %3
  %11 = load i32, ptr %6, align 4, !tbaa !111
  %12 = sext i32 %11 to i64
  %13 = call noundef i64 @_ZNK11OpenImageIO6v3_1_08TypeDesc4sizeEv(ptr noundef nonnull align 4 dereferenceable(8) %4) #3
  %14 = mul i64 %12, %13
  %15 = load ptr, ptr %5, align 8, !tbaa !210
  store i64 %14, ptr %15, align 8, !tbaa !116
  br label %16

16:                                               ; preds = %10, %3
  ret void
}

; Function Attrs: mustprogress uwtable
define hidden noundef zeroext i1 @_ZN11OpenImageIO6v3_1_09JpgOutput14write_scanlineEiiNS0_8TypeDescEPKvl(ptr noundef nonnull align 8 dereferenceable(1056) %0, i32 noundef %1, i32 noundef %2, i64 %3, ptr noundef %4, i64 noundef %5) unnamed_addr #6 align 2 {
  %7 = alloca i1, align 1
  %8 = alloca %"struct.OpenImageIO::v3_1_0::TypeDesc", align 4
  %9 = alloca ptr, align 8
  %10 = alloca i32, align 4
  %11 = alloca i32, align 4
  %12 = alloca ptr, align 8
  %13 = alloca i64, align 8
  %14 = alloca %"struct.OpenImageIO::v3_1_0::TypeDesc", align 4
  %15 = alloca i32, align 4
  %16 = alloca ptr, align 8
  %17 = alloca %"struct.OpenImageIO::v3_1_0::TypeDesc", align 4
  %18 = alloca %"struct.OpenImageIO::v3_1_0::TypeDesc", align 4
  %19 = alloca %"struct.OpenImageIO::v3_1_0::TypeDesc", align 4
  store i64 %3, ptr %8, align 4
  store ptr %0, ptr %9, align 8, !tbaa !8
  store i32 %1, ptr %10, align 4, !tbaa !111
  store i32 %2, ptr %11, align 4, !tbaa !111
  store ptr %4, ptr %12, align 8, !tbaa !214
  store i64 %5, ptr %13, align 8, !tbaa !116
  %20 = load ptr, ptr %9, align 8
  %21 = getelementptr inbounds nuw %"class.OpenImageIO::v3_1_0::ImageOutput", ptr %20, i32 0, i32 1
  %22 = getelementptr inbounds nuw %"class.OpenImageIO::v3_1_0::ImageSpec", ptr %21, i32 0, i32 1
  %23 = load i32, ptr %22, align 4, !tbaa !215
  %24 = load i32, ptr %10, align 4, !tbaa !111
  %25 = sub nsw i32 %24, %23
  store i32 %25, ptr %10, align 4, !tbaa !111
  %26 = load i32, ptr %10, align 4, !tbaa !111
  %27 = getelementptr inbounds nuw %"class.OpenImageIO::v3_1_0::JpgOutput", ptr %20, i32 0, i32 3
  %28 = load i32, ptr %27, align 4, !tbaa !112
  %29 = icmp ne i32 %26, %28
  br i1 %29, label %30, label %32

30:                                               ; preds = %6
  %31 = getelementptr inbounds nuw %"class.OpenImageIO::v3_1_0::JpgOutput", ptr %20, i32 0, i32 1
  call void @_ZNK11OpenImageIO6v3_1_011ImageOutput8errorfmtIJNSt7__cxx1112basic_stringIcSt11char_traitsIcESaIcEEEEEEvPKcDpRKT_(ptr noundef nonnull align 8 dereferenceable(184) %20, ptr noundef @.str.48, ptr noundef nonnull align 8 dereferenceable(32) %31)
  store i1 false, ptr %7, align 1
  br label %112

32:                                               ; preds = %6
  %33 = load i32, ptr %10, align 4, !tbaa !111
  %34 = getelementptr inbounds nuw %"class.OpenImageIO::v3_1_0::JpgOutput", ptr %20, i32 0, i32 5
  %35 = getelementptr inbounds nuw %struct.jpeg_compress_struct, ptr %34, i32 0, i32 8
  %36 = load i32, ptr %35, align 4, !tbaa !104
  %37 = icmp sge i32 %33, %36
  br i1 %37, label %38, label %40

38:                                               ; preds = %32
  %39 = getelementptr inbounds nuw %"class.OpenImageIO::v3_1_0::JpgOutput", ptr %20, i32 0, i32 1
  call void @_ZNK11OpenImageIO6v3_1_011ImageOutput8errorfmtIJNSt7__cxx1112basic_stringIcSt11char_traitsIcESaIcEEEEEEvPKcDpRKT_(ptr noundef nonnull align 8 dereferenceable(184) %20, ptr noundef @.str.49, ptr noundef nonnull align 8 dereferenceable(32) %39)
  store i1 false, ptr %7, align 1
  br label %112

40:                                               ; preds = %32
  call void @llvm.memcpy.p0.p0.i64(ptr align 4 %14, ptr align 4 %8, i64 8, i1 false), !tbaa.struct !200
  %41 = getelementptr inbounds nuw %"class.OpenImageIO::v3_1_0::ImageOutput", ptr %20, i32 0, i32 1
  %42 = getelementptr inbounds nuw %"class.OpenImageIO::v3_1_0::ImageSpec", ptr %41, i32 0, i32 15
  %43 = load i32, ptr %42, align 4, !tbaa !105
  %44 = load i64, ptr %14, align 4
  call void @_ZN11OpenImageIO6v3_1_09ImageSpec11auto_strideERlNS0_8TypeDescEi(ptr noundef nonnull align 8 dereferenceable(8) %13, i64 %44, i32 noundef %43) #3
  call void @llvm.lifetime.start.p0(i64 4, ptr %15) #3
  %45 = getelementptr inbounds nuw %"class.OpenImageIO::v3_1_0::ImageOutput", ptr %20, i32 0, i32 1
  %46 = getelementptr inbounds nuw %"class.OpenImageIO::v3_1_0::ImageSpec", ptr %45, i32 0, i32 15
  %47 = load i32, ptr %46, align 4, !tbaa !105
  store i32 %47, ptr %15, align 4, !tbaa !111
  %48 = getelementptr inbounds nuw %"class.OpenImageIO::v3_1_0::JpgOutput", ptr %20, i32 0, i32 5
  %49 = getelementptr inbounds nuw %struct.jpeg_compress_struct, ptr %48, i32 0, i32 9
  %50 = load i32, ptr %49, align 8, !tbaa !106
  %51 = getelementptr inbounds nuw %"class.OpenImageIO::v3_1_0::ImageOutput", ptr %20, i32 0, i32 1
  %52 = getelementptr inbounds nuw %"class.OpenImageIO::v3_1_0::ImageSpec", ptr %51, i32 0, i32 15
  store i32 %50, ptr %52, align 4, !tbaa !105
  %53 = load i32, ptr %15, align 4, !tbaa !111
  %54 = icmp eq i32 %53, 2
  br i1 %54, label %55, label %93

55:                                               ; preds = %40
  %56 = getelementptr inbounds nuw %"class.OpenImageIO::v3_1_0::ImageOutput", ptr %20, i32 0, i32 1
  %57 = getelementptr inbounds nuw %"class.OpenImageIO::v3_1_0::ImageSpec", ptr %56, i32 0, i32 15
  %58 = load i32, ptr %57, align 4, !tbaa !105
  %59 = icmp eq i32 %58, 3
  br i1 %59, label %60, label %93

60:                                               ; preds = %55
  call void @llvm.lifetime.start.p0(i64 8, ptr %16) #3
  %61 = getelementptr inbounds nuw %"class.OpenImageIO::v3_1_0::ImageOutput", ptr %20, i32 0, i32 1
  %62 = getelementptr inbounds nuw %"class.OpenImageIO::v3_1_0::ImageSpec", ptr %61, i32 0, i32 3
  %63 = load i32, ptr %62, align 4, !tbaa !101
  %64 = mul nsw i32 %63, 3
  %65 = icmp ne i32 %64, 0
  br i1 %65, label %66, label %74

66:                                               ; preds = %60
  %67 = getelementptr inbounds nuw %"class.OpenImageIO::v3_1_0::ImageOutput", ptr %20, i32 0, i32 1
  %68 = getelementptr inbounds nuw %"class.OpenImageIO::v3_1_0::ImageSpec", ptr %67, i32 0, i32 3
  %69 = load i32, ptr %68, align 4, !tbaa !101
  %70 = mul nsw i32 %69, 3
  %71 = sext i32 %70 to i64
  %72 = mul i64 %71, 1
  %73 = alloca i8, i64 %72, align 16
  br label %75

74:                                               ; preds = %60
  br label %75

75:                                               ; preds = %74, %66
  %76 = phi ptr [ %73, %66 ], [ null, %74 ]
  store ptr %76, ptr %16, align 8, !tbaa !83
  %77 = load ptr, ptr %16, align 8, !tbaa !83
  %78 = getelementptr inbounds nuw %"class.OpenImageIO::v3_1_0::ImageOutput", ptr %20, i32 0, i32 1
  %79 = getelementptr inbounds nuw %"class.OpenImageIO::v3_1_0::ImageSpec", ptr %78, i32 0, i32 3
  %80 = load i32, ptr %79, align 4, !tbaa !101
  %81 = mul nsw i32 %80, 3
  %82 = sext i32 %81 to i64
  call void @llvm.memset.p0.i64(ptr align 1 %77, i8 0, i64 %82, i1 false)
  %83 = getelementptr inbounds nuw %"class.OpenImageIO::v3_1_0::ImageOutput", ptr %20, i32 0, i32 1
  %84 = getelementptr inbounds nuw %"class.OpenImageIO::v3_1_0::ImageSpec", ptr %83, i32 0, i32 3
  %85 = load i32, ptr %84, align 4, !tbaa !101
  %86 = load ptr, ptr %12, align 8, !tbaa !214
  call void @llvm.memcpy.p0.p0.i64(ptr align 4 %17, ptr align 4 %8, i64 8, i1 false), !tbaa.struct !200
  %87 = load i64, ptr %13, align 8, !tbaa !116
  %88 = load ptr, ptr %16, align 8, !tbaa !83
  call void @_ZN11OpenImageIO6v3_1_08TypeDescC2ENS1_8BASETYPEENS1_9AGGREGATEENS1_12VECSEMANTICSEi(ptr noundef nonnull align 4 dereferenceable(8) %18, i32 noundef 2, i32 noundef 1, i32 noundef 0, i32 noundef 0) #3
  %89 = load i64, ptr %17, align 4
  %90 = load i64, ptr %18, align 4
  %91 = call noundef zeroext i1 @_ZN11OpenImageIO6v3_1_013convert_imageEiiiiPKvNS0_8TypeDescElllPvS3_lll(i32 noundef 2, i32 noundef %85, i32 noundef 1, i32 noundef 1, ptr noundef %86, i64 %89, i64 noundef %87, i64 noundef -9223372036854775808, i64 noundef -9223372036854775808, ptr noundef %88, i64 %90, i64 noundef 3, i64 noundef -9223372036854775808, i64 noundef -9223372036854775808)
  %92 = load ptr, ptr %16, align 8, !tbaa !83
  store ptr %92, ptr %12, align 8, !tbaa !214
  call void @llvm.lifetime.end.p0(i64 8, ptr %16) #3
  br label %103

93:                                               ; preds = %55, %40
  call void @llvm.memcpy.p0.p0.i64(ptr align 4 %19, ptr align 4 %8, i64 8, i1 false), !tbaa.struct !200
  %94 = load ptr, ptr %12, align 8, !tbaa !214
  %95 = load i64, ptr %13, align 8, !tbaa !116
  %96 = getelementptr inbounds nuw %"class.OpenImageIO::v3_1_0::JpgOutput", ptr %20, i32 0, i32 4
  %97 = getelementptr inbounds nuw %"class.OpenImageIO::v3_1_0::JpgOutput", ptr %20, i32 0, i32 2
  %98 = load i32, ptr %97, align 8, !tbaa !121
  %99 = load i32, ptr %10, align 4, !tbaa !111
  %100 = load i32, ptr %11, align 4, !tbaa !111
  %101 = load i64, ptr %19, align 4
  %102 = call noundef ptr @_ZN11OpenImageIO6v3_1_011ImageOutput18to_native_scanlineENS0_8TypeDescEPKvlRSt6vectorIhSaIhEEjii(ptr noundef nonnull align 8 dereferenceable(184) %20, i64 %101, ptr noundef %94, i64 noundef %95, ptr noundef nonnull align 8 dereferenceable(24) %96, i32 noundef %98, i32 noundef %99, i32 noundef %100)
  store ptr %102, ptr %12, align 8, !tbaa !214
  br label %103

103:                                              ; preds = %93, %75
  %104 = load i32, ptr %15, align 4, !tbaa !111
  %105 = getelementptr inbounds nuw %"class.OpenImageIO::v3_1_0::ImageOutput", ptr %20, i32 0, i32 1
  %106 = getelementptr inbounds nuw %"class.OpenImageIO::v3_1_0::ImageSpec", ptr %105, i32 0, i32 15
  store i32 %104, ptr %106, align 4, !tbaa !105
  %107 = getelementptr inbounds nuw %"class.OpenImageIO::v3_1_0::JpgOutput", ptr %20, i32 0, i32 5
  %108 = call i32 @jpeg_write_scanlines(ptr noundef %107, ptr noundef %12, i32 noundef 1)
  %109 = getelementptr inbounds nuw %"class.OpenImageIO::v3_1_0::JpgOutput", ptr %20, i32 0, i32 3
  %110 = load i32, ptr %109, align 4, !tbaa !112
  %111 = add nsw i32 %110, 1
  store i32 %111, ptr %109, align 4, !tbaa !112
  store i1 true, ptr %7, align 1
  call void @llvm.lifetime.end.p0(i64 4, ptr %15) #3
  br label %112

112:                                              ; preds = %103, %38, %30
  %113 = load i1, ptr %7, align 1
  ret i1 %113
}