; Function Attrs: mustprogress uwtable
define hidden noundef zeroext i1 @_ZN11OpenImageIO6v3_1_09JpgOutput14write_scanlineEiiNS0_8TypeDescEPKvl(ptr noundef nonnull align 8 dereferenceable(1056) %0, i32 noundef %1, i32 noundef %2, i64 %3, ptr noundef %4, i64 noundef %5) unnamed_addr #5 align 2 {
  %7 = alloca %"struct.OpenImageIO::v3_1_0::TypeDesc", align 8
  %8 = alloca ptr, align 8
  %9 = getelementptr inbounds nuw i8, ptr %0, i64 12
  %10 = load i32, ptr %9, align 4, !tbaa !183
  %11 = sub nsw i32 %1, %10
  %12 = getelementptr inbounds nuw i8, ptr %0, i64 220
  %13 = load i32, ptr %12, align 4, !tbaa !128
  %.not = icmp eq i32 %11, %13
  br i1 %.not, label %16, label %14

14:                                               ; preds = %6
  %15 = getelementptr inbounds nuw i8, ptr %0, i64 184
  tail call void @_ZNK11OpenImageIO6v3_1_011ImageOutput8errorfmtIJNSt7__cxx1112basic_stringIcSt11char_traitsIcESaIcEEEEEEvPKcDpRKT_(ptr noundef nonnull align 8 dereferenceable(184) %0, ptr noundef nonnull @.str.48, ptr noundef nonnull align 8 dereferenceable(32) %15)
  br label %59

16:                                               ; preds = %6
  %17 = getelementptr inbounds nuw i8, ptr %0, i64 248
  %18 = getelementptr inbounds nuw i8, ptr %0, i64 300
  %19 = load i32, ptr %18, align 4, !tbaa !107
  %.not18 = icmp slt i32 %11, %19
  br i1 %.not18, label %22, label %20

20:                                               ; preds = %16
  %21 = getelementptr inbounds nuw i8, ptr %0, i64 184
  tail call void @_ZNK11OpenImageIO6v3_1_011ImageOutput8errorfmtIJNSt7__cxx1112basic_stringIcSt11char_traitsIcESaIcEEEEEEvPKcDpRKT_(ptr noundef nonnull align 8 dereferenceable(184) %0, ptr noundef nonnull @.str.49, ptr noundef nonnull align 8 dereferenceable(32) %21)
  br label %59

22:                                               ; preds = %16
  %23 = getelementptr inbounds nuw i8, ptr %0, i64 68
  %24 = load i32, ptr %23, align 4, !tbaa !108
  call void @llvm.lifetime.start.p0(i64 8, ptr nonnull %7)
  store i64 %3, ptr %7, align 8
  %25 = icmp eq i64 %5, -9223372036854775808
  br i1 %25, label %26, label %_ZN11OpenImageIO6v3_1_09ImageSpec11auto_strideERlNS0_8TypeDescEi.exit

26:                                               ; preds = %22
  %27 = lshr i64 %3, 8
  %28 = lshr i64 %3, 32
  %29 = trunc nuw i64 %28 to i32
  %30 = sext i32 %24 to i64
  %narrow.i.i = tail call i32 @llvm.smax.i32(i32 %29, i32 1)
  %spec.select.i.i = zext nneg i32 %narrow.i.i to i64
  %31 = and i64 %27, 255
  %32 = call noundef i64 @_ZNK11OpenImageIO6v3_1_08TypeDesc8basesizeEv(ptr noundef nonnull align 4 dereferenceable(8) %7) #26
  %33 = mul nuw nsw i64 %31, %spec.select.i.i
  %34 = mul i64 %33, %30
  %35 = mul i64 %34, %32
  %.pre = load i32, ptr %23, align 4, !tbaa !108
  br label %_ZN11OpenImageIO6v3_1_09ImageSpec11auto_strideERlNS0_8TypeDescEi.exit

_ZN11OpenImageIO6v3_1_09ImageSpec11auto_strideERlNS0_8TypeDescEi.exit: ; preds = %22, %26
  %36 = phi i32 [ %.pre, %26 ], [ %24, %22 ]
  %.022 = phi i64 [ %35, %26 ], [ %5, %22 ]
  call void @llvm.lifetime.end.p0(i64 8, ptr nonnull %7)
  %37 = getelementptr inbounds nuw i8, ptr %0, i64 304
  %38 = load i32, ptr %37, align 8, !tbaa !114
  store i32 %38, ptr %23, align 4, !tbaa !108
  %39 = icmp eq i32 %36, 2
  %40 = icmp eq i32 %38, 3
  %or.cond = select i1 %39, i1 %40, i1 false
  br i1 %or.cond, label %41, label %50

41:                                               ; preds = %_ZN11OpenImageIO6v3_1_09ImageSpec11auto_strideERlNS0_8TypeDescEi.exit
  %42 = getelementptr inbounds nuw i8, ptr %0, i64 20
  %43 = load i32, ptr %42, align 4, !tbaa !104
  %.not19 = icmp eq i32 %43, 0
  br i1 %.not19, label %._crit_edge, label %44

44:                                               ; preds = %41
  %45 = mul nsw i32 %43, 3
  %46 = sext i32 %45 to i64
  %47 = alloca i8, i64 %46, align 16
  br label %._crit_edge

._crit_edge:                                      ; preds = %41, %44
  %.pre-phi25 = phi i64 [ %46, %44 ], [ 0, %41 ]
  %48 = phi ptr [ %47, %44 ], [ null, %41 ]
  call void @llvm.memset.p0.i64(ptr align 16 %48, i8 0, i64 %.pre-phi25, i1 false)
  %49 = call noundef zeroext i1 @_ZN11OpenImageIO6v3_1_013convert_imageEiiiiPKvNS0_8TypeDescElllPvS3_lll(i32 noundef 2, i32 noundef %43, i32 noundef 1, i32 noundef 1, ptr noundef %4, i64 %3, i64 noundef %.022, i64 noundef -9223372036854775808, i64 noundef -9223372036854775808, ptr noundef %48, i64 258, i64 noundef 3, i64 noundef -9223372036854775808, i64 noundef -9223372036854775808)
  br label %55

50:                                               ; preds = %_ZN11OpenImageIO6v3_1_09ImageSpec11auto_strideERlNS0_8TypeDescEi.exit
  %51 = getelementptr inbounds nuw i8, ptr %0, i64 224
  %52 = getelementptr inbounds nuw i8, ptr %0, i64 216
  %53 = load i32, ptr %52, align 8, !tbaa !177
  %54 = call noundef ptr @_ZN11OpenImageIO6v3_1_011ImageOutput18to_native_scanlineENS0_8TypeDescEPKvlRSt6vectorIhSaIhEEjii(ptr noundef nonnull align 8 dereferenceable(184) %0, i64 %3, ptr noundef %4, i64 noundef %.022, ptr noundef nonnull align 8 dereferenceable(24) %51, i32 noundef %53, i32 noundef %11, i32 noundef %2)
  br label %55

55:                                               ; preds = %50, %._crit_edge
  %storemerge = phi ptr [ %54, %50 ], [ %48, %._crit_edge ]
  store ptr %storemerge, ptr %8, align 8, !tbaa !184
  store i32 %36, ptr %23, align 4, !tbaa !108
  %56 = call i32 @jpeg_write_scanlines(ptr noundef nonnull %17, ptr noundef nonnull %8, i32 noundef 1)
  %57 = load i32, ptr %12, align 4, !tbaa !128
  %58 = add nsw i32 %57, 1
  store i32 %58, ptr %12, align 4, !tbaa !128
  br label %59

59:                                               ; preds = %55, %20, %14
  %.0 = phi i1 [ false, %14 ], [ false, %20 ], [ true, %55 ]
  ret i1 %.0
}